; ModuleID = '49/1319.c'
source_filename = "49/1319.c"
target datalayout = "e-m:e-p270:32:32-p271:32:32-p272:64:64-i64:64-f80:128-n8:16:32:64-S128"
target triple = "x86_64-pc-linux-gnu"

@.str = private unnamed_addr constant [3 x i8] c"%s\00", align 1
@.str.1 = private unnamed_addr constant [4 x i8] c"%s\0A\00", align 1

; Function Attrs: noinline nounwind uwtable
define dso_local i32 @main() #0 {
  %1 = alloca i32, align 4
  %2 = alloca [501 x i8], align 16
  %3 = alloca i32, align 4
  %4 = alloca i32, align 4
  %5 = alloca i8**, align 8
  %6 = alloca i32, align 4
  %7 = alloca i32, align 4
  %8 = alloca i32, align 4
  %9 = alloca i32, align 4
  %10 = alloca [501 x i8], align 16
  %11 = alloca i32, align 4
  %12 = alloca i32, align 4
  store i32 0, i32* %1, align 4
  %13 = getelementptr inbounds [501 x i8], [501 x i8]* %2, i64 0, i64 0
  %14 = call i32 (i8*, ...) @__isoc99_scanf(i8* getelementptr inbounds ([3 x i8], [3 x i8]* @.str, i64 0, i64 0), i8* %13)
  %15 = getelementptr inbounds [501 x i8], [501 x i8]* %2, i64 0, i64 0
  %16 = call i64 @strlen(i8* %15) #5
  %17 = trunc i64 %16 to i32
  store i32 %17, i32* %3, align 4
  store i32 2, i32* %4, align 4
  br label %18

18:                                               ; preds = %143, %0
  %19 = load i32, i32* %4, align 4
  %20 = load i32, i32* %3, align 4
  %21 = icmp slt i32 %19, %20
  br i1 %21, label %22, label %146

22:                                               ; preds = %18
  %23 = load i32, i32* %3, align 4
  %24 = sext i32 %23 to i64
  %25 = mul i64 8, %24
  %26 = call noalias i8* @malloc(i64 %25) #6
  %27 = bitcast i8* %26 to i8**
  store i8** %27, i8*** %5, align 8
  store i32 0, i32* %6, align 4
  br label %28

28:                                               ; preds = %86, %22
  %29 = load i32, i32* %6, align 4
  %30 = load i32, i32* %3, align 4
  %31 = load i32, i32* %4, align 4
  %32 = sub nsw i32 %30, %31
  %33 = add nsw i32 %32, 1
  %34 = icmp slt i32 %29, %33
  br i1 %34, label %35, label %89

35:                                               ; preds = %28
  %36 = load i32, i32* %4, align 4
  %37 = add nsw i32 %36, 1
  %38 = sext i32 %37 to i64
  %39 = mul i64 %38, 1
  %40 = call noalias i8* @malloc(i64 %39) #6
  %41 = load i8**, i8*** %5, align 8
  %42 = load i32, i32* %6, align 4
  %43 = sext i32 %42 to i64
  %44 = getelementptr inbounds i8*, i8** %41, i64 %43
  store i8* %40, i8** %44, align 8
  store i32 0, i32* %7, align 4
  br label %45

45:                                               ; preds = %59, %35
  %46 = load i32, i32* %7, align 4
  %47 = load i32, i32* %4, align 4
  %48 = add nsw i32 %47, 1
  %49 = icmp slt i32 %46, %48
  br i1 %49, label %50, label %62

50:                                               ; preds = %45
  %51 = load i8**, i8*** %5, align 8
  %52 = load i32, i32* %6, align 4
  %53 = sext i32 %52 to i64
  %54 = getelementptr inbounds i8*, i8** %51, i64 %53
  %55 = load i8*, i8** %54, align 8
  %56 = load i32, i32* %7, align 4
  %57 = sext i32 %56 to i64
  %58 = getelementptr inbounds i8, i8* %55, i64 %57
  store i8 0, i8* %58, align 1
  br label %59

59:                                               ; preds = %50
  %60 = load i32, i32* %7, align 4
  %61 = add nsw i32 %60, 1
  store i32 %61, i32* %7, align 4
  br label %45

62:                                               ; preds = %45
  store i32 0, i32* %8, align 4
  br label %63

63:                                               ; preds = %82, %62
  %64 = load i32, i32* %8, align 4
  %65 = load i32, i32* %4, align 4
  %66 = icmp slt i32 %64, %65
  br i1 %66, label %67, label %85

67:                                               ; preds = %63
  %68 = load i32, i32* %6, align 4
  %69 = load i32, i32* %8, align 4
  %70 = add nsw i32 %68, %69
  %71 = sext i32 %70 to i64
  %72 = getelementptr inbounds [501 x i8], [501 x i8]* %2, i64 0, i64 %71
  %73 = load i8, i8* %72, align 1
  %74 = load i8**, i8*** %5, align 8
  %75 = load i32, i32* %6, align 4
  %76 = sext i32 %75 to i64
  %77 = getelementptr inbounds i8*, i8** %74, i64 %76
  %78 = load i8*, i8** %77, align 8
  %79 = load i32, i32* %8, align 4
  %80 = sext i32 %79 to i64
  %81 = getelementptr inbounds i8, i8* %78, i64 %80
  store i8 %73, i8* %81, align 1
  br label %82

82:                                               ; preds = %67
  %83 = load i32, i32* %8, align 4
  %84 = add nsw i32 %83, 1
  store i32 %84, i32* %8, align 4
  br label %63

85:                                               ; preds = %63
  br label %86

86:                                               ; preds = %85
  %87 = load i32, i32* %6, align 4
  %88 = add nsw i32 %87, 1
  store i32 %88, i32* %6, align 4
  br label %28

89:                                               ; preds = %28
  store i32 0, i32* %9, align 4
  br label %90

90:                                               ; preds = %139, %89
  %91 = load i32, i32* %9, align 4
  %92 = load i32, i32* %3, align 4
  %93 = load i32, i32* %4, align 4
  %94 = sub nsw i32 %92, %93
  %95 = add nsw i32 %94, 1
  %96 = icmp slt i32 %91, %95
  br i1 %96, label %97, label %142

97:                                               ; preds = %90
  %98 = bitcast [501 x i8]* %10 to i8*
  call void @llvm.memset.p0i8.i64(i8* align 16 %98, i8 0, i64 501, i1 false)
  store i32 0, i32* %11, align 4
  %99 = load i32, i32* %4, align 4
  %100 = sub nsw i32 %99, 1
  store i32 %100, i32* %12, align 4
  br label %101

101:                                              ; preds = %119, %97
  %102 = load i32, i32* %12, align 4
  %103 = icmp sge i32 %102, 0
  br i1 %103, label %104, label %122

104:                                              ; preds = %101
  %105 = load i8**, i8*** %5, align 8
  %106 = load i32, i32* %9, align 4
  %107 = sext i32 %106 to i64
  %108 = getelementptr inbounds i8*, i8** %105, i64 %107
  %109 = load i8*, i8** %108, align 8
  %110 = load i32, i32* %12, align 4
  %111 = sext i32 %110 to i64
  %112 = getelementptr inbounds i8, i8* %109, i64 %111
  %113 = load i8, i8* %112, align 1
  %114 = load i32, i32* %11, align 4
  %115 = sext i32 %114 to i64
  %116 = getelementptr inbounds [501 x i8], [501 x i8]* %10, i64 0, i64 %115
  store i8 %113, i8* %116, align 1
  %117 = load i32, i32* %11, align 4
  %118 = add nsw i32 %117, 1
  store i32 %118, i32* %11, align 4
  br label %119

119:                                              ; preds = %104
  %120 = load i32, i32* %12, align 4
  %121 = add nsw i32 %120, -1
  store i32 %121, i32* %12, align 4
  br label %101

122:                                              ; preds = %101
  %123 = getelementptr inbounds [501 x i8], [501 x i8]* %10, i64 0, i64 0
  %124 = load i8**, i8*** %5, align 8
  %125 = load i32, i32* %9, align 4
  %126 = sext i32 %125 to i64
  %127 = getelementptr inbounds i8*, i8** %124, i64 %126
  %128 = load i8*, i8** %127, align 8
  %129 = call i32 @strcmp(i8* %123, i8* %128) #5
  %130 = icmp eq i32 %129, 0
  br i1 %130, label %131, label %138

131:                                              ; preds = %122
  %132 = load i8**, i8*** %5, align 8
  %133 = load i32, i32* %9, align 4
  %134 = sext i32 %133 to i64
  %135 = getelementptr inbounds i8*, i8** %132, i64 %134
  %136 = load i8*, i8** %135, align 8
  %137 = call i32 (i8*, ...) @printf(i8* getelementptr inbounds ([4 x i8], [4 x i8]* @.str.1, i64 0, i64 0), i8* %136)
  br label %138

138:                                              ; preds = %131, %122
  br label %139

139:                                              ; preds = %138
  %140 = load i32, i32* %9, align 4
  %141 = add nsw i32 %140, 1
  store i32 %141, i32* %9, align 4
  br label %90

142:                                              ; preds = %90
  br label %143

143:                                              ; preds = %142
  %144 = load i32, i32* %4, align 4
  %145 = add nsw i32 %144, 1
  store i32 %145, i32* %4, align 4
  br label %18

146:                                              ; preds = %18
  %147 = load i32, i32* %1, align 4
  ret i32 %147
}

declare dso_local i32 @__isoc99_scanf(i8*, ...) #1

; Function Attrs: nounwind readonly
declare dso_local i64 @strlen(i8*) #2

; Function Attrs: nounwind
declare dso_local noalias i8* @malloc(i64) #3

; Function Attrs: argmemonly nounwind willreturn
declare void @llvm.memset.p0i8.i64(i8* nocapture writeonly, i8, i64, i1 immarg) #4

; Function Attrs: nounwind readonly
declare dso_local i32 @strcmp(i8*, i8*) #2

declare dso_local i32 @printf(i8*, ...) #1


!llvm.module.flags = !{!0}
!llvm.ident = !{!1}

!0 = !{i32 1, !"wchar_size", i32 4}
!1 = !{!"clang version 10.0.0-4ubuntu1 "}
